; Function Attrs: nofree norecurse nosync nounwind memory(argmem: readwrite) uwtable
define internal fastcc i32 @decShiftToMost(ptr noundef captures(address) %0, i32 noundef %1, i32 noundef %2) unnamed_addr #0 {
  %4 = icmp eq i32 %2, 0
  br i1 %4, label %.loopexit, label %5

5:                                                ; preds = %3
  %6 = add nsw i32 %2, %1
  %7 = icmp slt i32 %6, 4
  br i1 %7, label %8, label %15

8:                                                ; preds = %5
  %9 = load i16, ptr %0, align 2, !tbaa !11
  %10 = sext i32 %2 to i64
  %11 = getelementptr inbounds [10 x i32], ptr @DECPOWERS, i64 0, i64 %10
  %12 = load i32, ptr %11, align 4, !tbaa !16
  %13 = trunc i32 %12 to i16
  %14 = mul i16 %9, %13
  store i16 %14, ptr %0, align 2, !tbaa !11
  br label %.loopexit

15:                                               ; preds = %5
  %16 = icmp slt i32 %1, 50
  br i1 %16, label %17, label %22

17:                                               ; preds = %15
  %18 = sext i32 %1 to i64
  %19 = getelementptr inbounds [50 x i8], ptr @d2utable, i64 0, i64 %18
  %20 = load i8, ptr %19, align 1, !tbaa !19
  %21 = zext i8 %20 to i32
  br label %25

22:                                               ; preds = %15
  %23 = add nuw nsw i32 %1, 2
  %24 = udiv i32 %23, 3
  br label %25

25:                                               ; preds = %22, %17
  %26 = phi i32 [ %21, %17 ], [ %24, %22 ]
  %27 = zext nneg i32 %26 to i64
  %28 = getelementptr inbounds nuw i16, ptr %0, i64 %27
  %29 = getelementptr inbounds i8, ptr %28, i64 -2
  %30 = icmp slt i32 %2, 50
  br i1 %30, label %31, label %37

31:                                               ; preds = %25
  %32 = sext i32 %2 to i64
  %33 = getelementptr inbounds [50 x i8], ptr @d2utable, i64 0, i64 %32
  %34 = load i8, ptr %33, align 1, !tbaa !19
  %35 = zext i8 %34 to i64
  %36 = zext i8 %34 to i32
  br label %41

37:                                               ; preds = %25
  %38 = add nuw nsw i32 %2, 2
  %39 = udiv i32 %38, 3
  %40 = zext nneg i32 %39 to i64
  br label %41

41:                                               ; preds = %37, %31
  %.pn = phi i64 [ %35, %31 ], [ %40, %37 ]
  %42 = phi i32 [ %36, %31 ], [ %39, %37 ]
  %43 = getelementptr inbounds nuw i16, ptr %29, i64 %.pn
  %.neg = mul nsw i32 %42, -3
  %.neg72 = add i32 %2, 3
  %44 = add i32 %.neg72, %.neg
  %45 = sub nsw i32 3, %44
  %46 = icmp eq i32 %44, 3
  br i1 %46, label %.preheader, label %50

.preheader:                                       ; preds = %41
  %.not7483 = icmp ult ptr %29, %0
  br i1 %.not7483, label %.loopexit76, label %.lr.ph86

.lr.ph86:                                         ; preds = %.preheader, %.lr.ph86
  %.06085 = phi ptr [ %49, %.lr.ph86 ], [ %43, %.preheader ]
  %.06484 = phi ptr [ %48, %.lr.ph86 ], [ %29, %.preheader ]
  %47 = load i16, ptr %.06484, align 2, !tbaa !11
  store i16 %47, ptr %.06085, align 2, !tbaa !11
  %48 = getelementptr inbounds i8, ptr %.06484, i64 -2
  %49 = getelementptr inbounds i8, ptr %.06085, i64 -2
  %.not74 = icmp ult ptr %48, %0
  br i1 %.not74, label %.loopexit76, label %.lr.ph86, !llvm.loop !64

50:                                               ; preds = %41
  %51 = icmp samesign ult i32 %6, 50
  br i1 %51, label %52, label %57

52:                                               ; preds = %50
  %53 = zext nneg i32 %6 to i64
  %54 = getelementptr inbounds nuw [50 x i8], ptr @d2utable, i64 0, i64 %53
  %55 = load i8, ptr %54, align 1, !tbaa !19
  %56 = zext i8 %55 to i32
  br label %60

57:                                               ; preds = %50
  %58 = add nuw nsw i32 %6, 2
  %59 = udiv i32 %58, 3
  br label %60

60:                                               ; preds = %57, %52
  %61 = phi i32 [ %56, %52 ], [ %59, %57 ]
  %62 = zext nneg i32 %61 to i64
  %63 = getelementptr inbounds nuw i16, ptr %0, i64 %62
  %64 = getelementptr inbounds i8, ptr %63, i64 -2
  %.not78 = icmp ult ptr %29, %0
  br i1 %.not78, label %.loopexit76, label %.lr.ph

.lr.ph:                                           ; preds = %60
  %65 = sext i32 %45 to i64
  %66 = getelementptr inbounds [5 x i32], ptr @multies, i64 0, i64 %65
  %67 = load i32, ptr %66, align 4, !tbaa !16
  %68 = getelementptr inbounds [10 x i32], ptr @DECPOWERS, i64 0, i64 %65
  %69 = load i32, ptr %68, align 4, !tbaa !16
  %70 = sext i32 %44 to i64
  %71 = getelementptr inbounds [10 x i32], ptr @DECPOWERS, i64 0, i64 %70
  %72 = load i32, ptr %71, align 4, !tbaa !16
  br label %73

73:                                               ; preds = %.lr.ph, %84
  %.281 = phi ptr [ %43, %.lr.ph ], [ %87, %84 ]
  %.16280 = phi i32 [ 0, %.lr.ph ], [ %85, %84 ]
  %.16579 = phi ptr [ %29, %.lr.ph ], [ %86, %84 ]
  %74 = load i16, ptr %.16579, align 2, !tbaa !11
  %75 = zext i16 %74 to i32
  %76 = lshr i32 %75, %45
  %77 = mul i32 %76, %67
  %78 = lshr i32 %77, 17
  %79 = mul i32 %78, %69
  %80 = sub i32 %75, %79
  %.not73 = icmp ugt ptr %.281, %64
  br i1 %.not73, label %84, label %81

81:                                               ; preds = %73
  %82 = add i32 %78, %.16280
  %83 = trunc i32 %82 to i16
  store i16 %83, ptr %.281, align 2, !tbaa !11
  br label %84

84:                                               ; preds = %81, %73
  %85 = mul i32 %72, %80
  %86 = getelementptr inbounds i8, ptr %.16579, i64 -2
  %87 = getelementptr inbounds i8, ptr %.281, i64 -2
  %.not = icmp ult ptr %86, %0
  br i1 %.not, label %.loopexit76.loopexit92, label %73, !llvm.loop !65

.loopexit76.loopexit92:                           ; preds = %84
  %88 = trunc i32 %85 to i16
  br label %.loopexit76

.loopexit76:                                      ; preds = %.lr.ph86, %.loopexit76.loopexit92, %60, %.preheader
  %.061 = phi i16 [ 0, %.preheader ], [ 0, %60 ], [ %88, %.loopexit76.loopexit92 ], [ 0, %.lr.ph86 ]
  %.1 = phi ptr [ %43, %.preheader ], [ %43, %60 ], [ %87, %.loopexit76.loopexit92 ], [ %49, %.lr.ph86 ]
  %.not7588 = icmp ult ptr %.1, %0
  br i1 %.not7588, label %.loopexit, label %.lr.ph91

.lr.ph91:                                         ; preds = %.loopexit76, %.lr.ph91
  %.390 = phi ptr [ %89, %.lr.ph91 ], [ %.1, %.loopexit76 ]
  %.26389 = phi i16 [ 0, %.lr.ph91 ], [ %.061, %.loopexit76 ]
  store i16 %.26389, ptr %.390, align 2, !tbaa !11
  %89 = getelementptr inbounds i8, ptr %.390, i64 -2
  %.not75 = icmp ult ptr %89, %0
  br i1 %.not75, label %.loopexit, label %.lr.ph91, !llvm.loop !66

.loopexit:                                        ; preds = %.lr.ph91, %.loopexit76, %3, %8
  %.0 = phi i32 [ %6, %8 ], [ %1, %3 ], [ %6, %.loopexit76 ], [ %6, %.lr.ph91 ]
  ret i32 %.0
}